(dp0
S'grams'
p1
Vgram
p2
sS'weight'
p3
Vweight  
p4
sS'is'
p5
NsS'10g'
p6
V10 grams
p7
sS'mass'
p8
Vmass  
p9
sS'cleaver'
p10
NsS'speed'
p11
Vspeed  
p12
sS'10m/s'
p13
V10 m/s  (meters per second)
p14
s.